; Function Attrs: mustprogress uwtable
define void @_Z31ulocimp_toBcpKeyWithFallback_77St17basic_string_viewIcSt11char_traitsIcEE(ptr dead_on_unwind noalias writable writeonly sret(%"class.std::optional.30") align 8 captures(none) initializes((0, 17)) %0, i64 %1, ptr %2) local_unnamed_addr #1 personality ptr @__gxx_personality_v0 {
  %4 = alloca %"class.std::optional.30", align 8
  call void @llvm.lifetime.start.p0(i64 24, ptr nonnull %4) #20
  call void @_Z19ulocimp_toBcpKey_77St17basic_string_viewIcSt11char_traitsIcEE(ptr dead_on_unwind nonnull writable sret(%"class.std::optional.30") align 8 %4, i64 %1, ptr %2)
  %5 = getelementptr inbounds nuw i8, ptr %4, i64 16
  %6 = load i8, ptr %5, align 8, !tbaa !141, !range !74, !noundef !75
  %7 = trunc nuw i8 %6 to i1
  br i1 %7, label %13, label %8

8:                                                ; preds = %3
  %9 = trunc i64 %1 to i32
  %10 = call noundef zeroext i1 @_Z27ultag_isUnicodeLocaleKey_77PKci(ptr noundef %2, i32 noundef %9)
  br i1 %10, label %11, label %13

11:                                               ; preds = %8
  store i64 %1, ptr %0, align 8, !tbaa !143
  %.sroa.3.0..sroa_idx = getelementptr inbounds nuw i8, ptr %0, i64 8
  store ptr %2, ptr %.sroa.3.0..sroa_idx, align 8, !tbaa !56
  %12 = getelementptr inbounds nuw i8, ptr %0, i64 16
  store i8 1, ptr %12, align 8, !tbaa !141
  br label %14

13:                                               ; preds = %8, %3
  call void @llvm.memcpy.p0.p0.i64(ptr noundef nonnull align 8 dereferenceable(24) %0, ptr noundef nonnull align 8 dereferenceable(24) %4, i64 24, i1 false)
  br label %14

14:                                               ; preds = %13, %11
  call void @llvm.lifetime.end.p0(i64 24, ptr nonnull %4) #20
  ret void
}